; Function Attrs: mustprogress uwtable
define noundef nonnull align 8 dereferenceable(64) ptr @_ZNK7testing10TestResult15GetTestPropertyEi(ptr nocapture noundef nonnull readonly align 8 dereferenceable(120) %this, i32 noundef %i) local_unnamed_addr #3 align 2 {
entry:
  %cmp = icmp slt i32 %i, 0
  br i1 %cmp, label %if.then, label %lor.lhs.false

lor.lhs.false:                                    ; preds = %entry
  %test_properties_.i = getelementptr inbounds i8, ptr %this, i64 80
  %_M_finish.i.i = getelementptr inbounds i8, ptr %this, i64 88
  %0 = load ptr, ptr %_M_finish.i.i, align 8
  %1 = load ptr, ptr %test_properties_.i, align 8
  %sub.ptr.lhs.cast.i.i = ptrtoint ptr %0 to i64
  %sub.ptr.rhs.cast.i.i = ptrtoint ptr %1 to i64
  %sub.ptr.sub.i.i = sub i64 %sub.ptr.lhs.cast.i.i, %sub.ptr.rhs.cast.i.i
  %sub.ptr.div.i.i = lshr exact i64 %sub.ptr.sub.i.i, 6
  %conv.i = trunc i64 %sub.ptr.div.i.i to i32
  %cmp2.not = icmp sgt i32 %conv.i, %i
  br i1 %cmp2.not, label %if.end, label %if.then

if.then:                                          ; preds = %lor.lhs.false, %entry
  tail call void @abort() #53
  unreachable

if.end:                                           ; preds = %lor.lhs.false
  %conv = zext nneg i32 %i to i64
  %sub.ptr.div.i.i.i = ashr exact i64 %sub.ptr.sub.i.i, 6
  %cmp.not.i.i = icmp ugt i64 %sub.ptr.div.i.i.i, %conv
  br i1 %cmp.not.i.i, label %_ZNKSt6vectorIN7testing12TestPropertyESaIS1_EE2atEm.exit, label %if.then.i.i

if.then.i.i:                                      ; preds = %if.end
  tail call void (ptr, ...) @_ZSt24__throw_out_of_range_fmtPKcz(ptr noundef nonnull @.str.421, i64 noundef %conv, i64 noundef %sub.ptr.div.i.i.i) #49
  unreachable

_ZNKSt6vectorIN7testing12TestPropertyESaIS1_EE2atEm.exit: ; preds = %if.end
  %add.ptr.i.i = getelementptr inbounds %"class.testing::TestProperty", ptr %1, i64 %conv
  ret ptr %add.ptr.i.i
}